target datalayout = "e-m:e-p270:32:32-p271:32:32-p272:64:64-i64:64-i128:128-f80:128-n8:16:32:64-S128"
target triple = "x86_64-pc-linux-gnu"

%"class.pxrInternal_v0_24__pxrReserved__::SdfPath" = type { %"struct.pxrInternal_v0_24__pxrReserved__::Sdf_PathNodeHandleImpl", %"struct.pxrInternal_v0_24__pxrReserved__::Sdf_PathNodeHandleImpl.8" }
%"struct.pxrInternal_v0_24__pxrReserved__::Sdf_PathNodeHandleImpl" = type { %"struct.pxrInternal_v0_24__pxrReserved__::Sdf_Pool<pxrInternal_v0_24__pxrReserved__::Sdf_PathPrimTag, 24, 8>::Handle" }
%"struct.pxrInternal_v0_24__pxrReserved__::Sdf_Pool<pxrInternal_v0_24__pxrReserved__::Sdf_PathPrimTag, 24, 8>::Handle" = type { i32 }
%"struct.pxrInternal_v0_24__pxrReserved__::Sdf_PathNodeHandleImpl.8" = type { %"struct.pxrInternal_v0_24__pxrReserved__::Sdf_Pool<pxrInternal_v0_24__pxrReserved__::Sdf_PathPropTag, 24, 8>::Handle" }
%"struct.pxrInternal_v0_24__pxrReserved__::Sdf_Pool<pxrInternal_v0_24__pxrReserved__::Sdf_PathPropTag, 24, 8>::Handle" = type { i32 }
%"struct.pxrInternal_v0_24__pxrReserved__::SdfNamespaceEdit" = type { %"class.pxrInternal_v0_24__pxrReserved__::SdfPath", %"class.pxrInternal_v0_24__pxrReserved__::SdfPath", i32 }
%"class.std::__cxx11::basic_string" = type { %"struct.std::__cxx11::basic_string<char>::_Alloc_hider", i64, %union.anon }
%"struct.std::__cxx11::basic_string<char>::_Alloc_hider" = type { ptr }
%union.anon = type { i64, [8 x i8] }
%"struct.pxrInternal_v0_24__pxrReserved__::SdfNamespaceEditDetail" = type { i32, %"struct.pxrInternal_v0_24__pxrReserved__::SdfNamespaceEdit", %"class.std::__cxx11::basic_string" }

; Function Attrs: mustprogress nounwind uwtable
define linkonce_odr noundef i64 @_ZNK32pxrInternal_v0_24__pxrReserved__7SdfPath6_AsIntEv(ptr noundef nonnull align 4 dereferenceable(8) %0) #2 comdat align 2 {
  %2 = alloca ptr, align 8
  %3 = alloca i64, align 8
  store ptr %0, ptr %2, align 8
  %4 = load ptr, ptr %2, align 8
  call void @llvm.memcpy.p0.p0.i64(ptr align 8 %3, ptr align 4 %4, i64 8, i1 false)
  %5 = load i64, ptr %3, align 8
  ret i64 %5
}

; Function Attrs: noreturn nounwind uwtable
define linkonce_odr hidden void @__clang_call_terminate(ptr noundef %0) #9 comdat {
  %2 = call ptr @__cxa_begin_catch(ptr %0) #8
  call void @_ZSt9terminatev() #16
  unreachable
}

; Function Attrs: mustprogress nounwind uwtable
define linkonce_odr noundef i32 @_ZNSt11char_traitsIcE7compareEPKcS2_m(ptr noundef %0, ptr noundef %1, i64 noundef %2) #2 comdat align 2 {
  %4 = alloca i32, align 4
  %5 = alloca ptr, align 8
  %6 = alloca ptr, align 8
  %7 = alloca i64, align 8
  store ptr %0, ptr %5, align 8
  store ptr %1, ptr %6, align 8
  store i64 %2, ptr %7, align 8
  %8 = load i64, ptr %7, align 8
  %9 = icmp eq i64 %8, 0
  br i1 %9, label %10, label %11

10:                                               ; preds = %3
  store i32 0, ptr %4, align 4
  br label %16

11:                                               ; preds = %3
  %12 = load ptr, ptr %5, align 8
  %13 = load ptr, ptr %6, align 8
  %14 = load i64, ptr %7, align 8
  %15 = call i32 @memcmp(ptr noundef %12, ptr noundef %13, i64 noundef %14) #8
  store i32 %15, ptr %4, align 4
  br label %16

16:                                               ; preds = %11, %10
  %17 = load i32, ptr %4, align 4
  ret i32 %17
}

; Function Attrs: mustprogress uwtable
define linkonce_odr noundef zeroext i1 @_ZNK32pxrInternal_v0_24__pxrReserved__7SdfPatheqERKS0_(ptr noundef nonnull align 4 dereferenceable(8) %0, ptr noundef nonnull align 4 dereferenceable(8) %1) #0 comdat align 2 {
  %3 = alloca ptr, align 8
  %4 = alloca ptr, align 8
  store ptr %0, ptr %3, align 8
  store ptr %1, ptr %4, align 8
  %5 = load ptr, ptr %3, align 8
  %6 = call noundef i64 @_ZNK32pxrInternal_v0_24__pxrReserved__7SdfPath6_AsIntEv(ptr noundef nonnull align 4 dereferenceable(8) %5)
  %7 = load ptr, ptr %4, align 8
  %8 = call noundef i64 @_ZNK32pxrInternal_v0_24__pxrReserved__7SdfPath6_AsIntEv(ptr noundef nonnull align 4 dereferenceable(8) %7)
  %9 = icmp eq i64 %6, %8
  ret i1 %9
}

; Function Attrs: mustprogress nounwind uwtable
define linkonce_odr noundef zeroext i1 @_ZSteqIcEN9__gnu_cxx11__enable_ifIXsr9__is_charIT_EE7__valueEbE6__typeERKNSt7__cxx1112basic_stringIS2_St11char_traitsIS2_ESaIS2_EEESC_(ptr noundef nonnull align 8 dereferenceable(32) %0, ptr noundef nonnull align 8 dereferenceable(32) %1) #2 comdat personality ptr @__gxx_personality_v0 {
  %3 = alloca ptr, align 8
  %4 = alloca ptr, align 8
  store ptr %0, ptr %3, align 8
  store ptr %1, ptr %4, align 8
  %5 = load ptr, ptr %3, align 8
  %6 = call noundef i64 @_ZNKSt7__cxx1112basic_stringIcSt11char_traitsIcESaIcEE4sizeEv(ptr noundef nonnull align 8 dereferenceable(32) %5) #8
  %7 = load ptr, ptr %4, align 8
  %8 = call noundef i64 @_ZNKSt7__cxx1112basic_stringIcSt11char_traitsIcESaIcEE4sizeEv(ptr noundef nonnull align 8 dereferenceable(32) %7) #8
  %9 = icmp eq i64 %6, %8
  br i1 %9, label %10, label %21

10:                                               ; preds = %2
  %11 = load ptr, ptr %3, align 8
  %12 = call noundef ptr @_ZNKSt7__cxx1112basic_stringIcSt11char_traitsIcESaIcEE4dataEv(ptr noundef nonnull align 8 dereferenceable(32) %11) #8
  %13 = load ptr, ptr %4, align 8
  %14 = call noundef ptr @_ZNKSt7__cxx1112basic_stringIcSt11char_traitsIcESaIcEE4dataEv(ptr noundef nonnull align 8 dereferenceable(32) %13) #8
  %15 = load ptr, ptr %3, align 8
  %16 = call noundef i64 @_ZNKSt7__cxx1112basic_stringIcSt11char_traitsIcESaIcEE4sizeEv(ptr noundef nonnull align 8 dereferenceable(32) %15) #8
  %17 = invoke noundef i32 @_ZNSt11char_traitsIcE7compareEPKcS2_m(ptr noundef %12, ptr noundef %14, i64 noundef %16)
          to label %18 unwind label %23

18:                                               ; preds = %10
  %19 = icmp ne i32 %17, 0
  %20 = xor i1 %19, true
  br label %21

21:                                               ; preds = %18, %2
  %22 = phi i1 [ false, %2 ], [ %20, %18 ]
  ret i1 %22

23:                                               ; preds = %10
  %24 = landingpad { ptr, i32 }
          catch ptr null
  %25 = extractvalue { ptr, i32 } %24, 0
  call void @__clang_call_terminate(ptr %25) #16
  unreachable
}

; Function Attrs: mustprogress uwtable
define noundef zeroext i1 @_ZNK32pxrInternal_v0_24__pxrReserved__16SdfNamespaceEditeqERKS0_(ptr noundef nonnull align 4 dereferenceable(20) %0, ptr noundef nonnull align 4 dereferenceable(20) %1) #0 align 2 {
  %3 = alloca ptr, align 8
  %4 = alloca ptr, align 8
  store ptr %0, ptr %3, align 8
  store ptr %1, ptr %4, align 8
  %5 = load ptr, ptr %3, align 8
  %6 = getelementptr inbounds nuw %"struct.pxrInternal_v0_24__pxrReserved__::SdfNamespaceEdit", ptr %5, i32 0, i32 0
  %7 = load ptr, ptr %4, align 8
  %8 = getelementptr inbounds nuw %"struct.pxrInternal_v0_24__pxrReserved__::SdfNamespaceEdit", ptr %7, i32 0, i32 0
  %9 = call noundef zeroext i1 @_ZNK32pxrInternal_v0_24__pxrReserved__7SdfPatheqERKS0_(ptr noundef nonnull align 4 dereferenceable(8) %6, ptr noundef nonnull align 4 dereferenceable(8) %8)
  br i1 %9, label %10, label %22

10:                                               ; preds = %2
  %11 = getelementptr inbounds nuw %"struct.pxrInternal_v0_24__pxrReserved__::SdfNamespaceEdit", ptr %5, i32 0, i32 1
  %12 = load ptr, ptr %4, align 8
  %13 = getelementptr inbounds nuw %"struct.pxrInternal_v0_24__pxrReserved__::SdfNamespaceEdit", ptr %12, i32 0, i32 1
  %14 = call noundef zeroext i1 @_ZNK32pxrInternal_v0_24__pxrReserved__7SdfPatheqERKS0_(ptr noundef nonnull align 4 dereferenceable(8) %11, ptr noundef nonnull align 4 dereferenceable(8) %13)
  br i1 %14, label %15, label %22

15:                                               ; preds = %10
  %16 = getelementptr inbounds nuw %"struct.pxrInternal_v0_24__pxrReserved__::SdfNamespaceEdit", ptr %5, i32 0, i32 2
  %17 = load i32, ptr %16, align 4
  %18 = load ptr, ptr %4, align 8
  %19 = getelementptr inbounds nuw %"struct.pxrInternal_v0_24__pxrReserved__::SdfNamespaceEdit", ptr %18, i32 0, i32 2
  %20 = load i32, ptr %19, align 4
  %21 = icmp eq i32 %17, %20
  br label %22

22:                                               ; preds = %15, %10, %2
  %23 = phi i1 [ false, %10 ], [ false, %2 ], [ %21, %15 ]
  ret i1 %23
}

; Function Attrs: mustprogress uwtable
define noundef zeroext i1 @_ZNK32pxrInternal_v0_24__pxrReserved__22SdfNamespaceEditDetaileqERKS0_(ptr noundef nonnull align 8 dereferenceable(56) %0, ptr noundef nonnull align 8 dereferenceable(56) %1) #0 align 2 {
  %3 = alloca ptr, align 8
  %4 = alloca ptr, align 8
  store ptr %0, ptr %3, align 8
  store ptr %1, ptr %4, align 8
  %5 = load ptr, ptr %3, align 8
  %6 = getelementptr inbounds nuw %"struct.pxrInternal_v0_24__pxrReserved__::SdfNamespaceEditDetail", ptr %5, i32 0, i32 0
  %7 = load i32, ptr %6, align 8
  %8 = load ptr, ptr %4, align 8
  %9 = getelementptr inbounds nuw %"struct.pxrInternal_v0_24__pxrReserved__::SdfNamespaceEditDetail", ptr %8, i32 0, i32 0
  %10 = load i32, ptr %9, align 8
  %11 = icmp eq i32 %7, %10
  br i1 %11, label %12, label %22

12:                                               ; preds = %2
  %13 = getelementptr inbounds nuw %"struct.pxrInternal_v0_24__pxrReserved__::SdfNamespaceEditDetail", ptr %5, i32 0, i32 1
  %14 = load ptr, ptr %4, align 8
  %15 = getelementptr inbounds nuw %"struct.pxrInternal_v0_24__pxrReserved__::SdfNamespaceEditDetail", ptr %14, i32 0, i32 1
  %16 = call noundef zeroext i1 @_ZNK32pxrInternal_v0_24__pxrReserved__16SdfNamespaceEditeqERKS0_(ptr noundef nonnull align 4 dereferenceable(20) %13, ptr noundef nonnull align 4 dereferenceable(20) %15)
  br i1 %16, label %17, label %22

17:                                               ; preds = %12
  %18 = getelementptr inbounds nuw %"struct.pxrInternal_v0_24__pxrReserved__::SdfNamespaceEditDetail", ptr %5, i32 0, i32 2
  %19 = load ptr, ptr %4, align 8
  %20 = getelementptr inbounds nuw %"struct.pxrInternal_v0_24__pxrReserved__::SdfNamespaceEditDetail", ptr %19, i32 0, i32 2
  %21 = call noundef zeroext i1 @_ZSteqIcEN9__gnu_cxx11__enable_ifIXsr9__is_charIT_EE7__valueEbE6__typeERKNSt7__cxx1112basic_stringIS2_St11char_traitsIS2_ESaIS2_EEESC_(ptr noundef nonnull align 8 dereferenceable(32) %18, ptr noundef nonnull align 8 dereferenceable(32) %20) #8
  br label %22

22:                                               ; preds = %17, %12, %2
  %23 = phi i1 [ false, %12 ], [ false, %2 ], [ %21, %17 ]
  ret i1 %23
}