; Function Attrs: mustprogress nounwind uwtable
define noundef zeroext i1 @_ZNK32pxrInternal_v0_24__pxrReserved__22SdfNamespaceEditDetaileqERKS0_(ptr noundef nonnull align 8 dereferenceable(56) %0, ptr noundef nonnull align 8 dereferenceable(56) %1) local_unnamed_addr #2 align 2 personality ptr @__gxx_personality_v0 {
  %3 = load i32, ptr %0, align 8
  %4 = load i32, ptr %1, align 8
  %5 = icmp eq i32 %3, %4
  br i1 %5, label %6, label %_ZSteqIcEN9__gnu_cxx11__enable_ifIXsr9__is_charIT_EE7__valueEbE6__typeERKNSt7__cxx1112basic_stringIS2_St11char_traitsIS2_ESaIS2_EEESC_.exit

6:                                                ; preds = %2
  %7 = getelementptr inbounds nuw i8, ptr %0, i64 4
  %8 = getelementptr inbounds nuw i8, ptr %1, i64 4
  %.0.copyload.i.i.i = load i64, ptr %7, align 4
  %.0.copyload.i2.i.i = load i64, ptr %8, align 4
  %9 = icmp eq i64 %.0.copyload.i.i.i, %.0.copyload.i2.i.i
  br i1 %9, label %10, label %_ZSteqIcEN9__gnu_cxx11__enable_ifIXsr9__is_charIT_EE7__valueEbE6__typeERKNSt7__cxx1112basic_stringIS2_St11char_traitsIS2_ESaIS2_EEESC_.exit

10:                                               ; preds = %6
  %11 = getelementptr inbounds nuw i8, ptr %0, i64 12
  %12 = getelementptr inbounds nuw i8, ptr %1, i64 12
  %.0.copyload.i.i4.i = load i64, ptr %11, align 4
  %.0.copyload.i2.i5.i = load i64, ptr %12, align 4
  %13 = icmp eq i64 %.0.copyload.i.i4.i, %.0.copyload.i2.i5.i
  br i1 %13, label %_ZNK32pxrInternal_v0_24__pxrReserved__16SdfNamespaceEditeqERKS0_.exit, label %_ZSteqIcEN9__gnu_cxx11__enable_ifIXsr9__is_charIT_EE7__valueEbE6__typeERKNSt7__cxx1112basic_stringIS2_St11char_traitsIS2_ESaIS2_EEESC_.exit

_ZNK32pxrInternal_v0_24__pxrReserved__16SdfNamespaceEditeqERKS0_.exit: ; preds = %10
  %14 = getelementptr inbounds nuw i8, ptr %0, i64 20
  %15 = load i32, ptr %14, align 4
  %16 = getelementptr inbounds nuw i8, ptr %1, i64 20
  %17 = load i32, ptr %16, align 4
  %18 = icmp eq i32 %15, %17
  br i1 %18, label %19, label %_ZSteqIcEN9__gnu_cxx11__enable_ifIXsr9__is_charIT_EE7__valueEbE6__typeERKNSt7__cxx1112basic_stringIS2_St11char_traitsIS2_ESaIS2_EEESC_.exit

19:                                               ; preds = %_ZNK32pxrInternal_v0_24__pxrReserved__16SdfNamespaceEditeqERKS0_.exit
  %20 = getelementptr inbounds nuw i8, ptr %0, i64 24
  %21 = getelementptr inbounds nuw i8, ptr %1, i64 24
  %22 = tail call noundef i64 @_ZNKSt7__cxx1112basic_stringIcSt11char_traitsIcESaIcEE4sizeEv(ptr noundef nonnull align 8 dereferenceable(32) %20) #24
  %23 = tail call noundef i64 @_ZNKSt7__cxx1112basic_stringIcSt11char_traitsIcESaIcEE4sizeEv(ptr noundef nonnull align 8 dereferenceable(32) %21) #24
  %24 = icmp eq i64 %22, %23
  br i1 %24, label %25, label %_ZSteqIcEN9__gnu_cxx11__enable_ifIXsr9__is_charIT_EE7__valueEbE6__typeERKNSt7__cxx1112basic_stringIS2_St11char_traitsIS2_ESaIS2_EEESC_.exit

25:                                               ; preds = %19
  %26 = tail call noundef ptr @_ZNKSt7__cxx1112basic_stringIcSt11char_traitsIcESaIcEE4dataEv(ptr noundef nonnull align 8 dereferenceable(32) %20) #24
  %27 = tail call noundef ptr @_ZNKSt7__cxx1112basic_stringIcSt11char_traitsIcESaIcEE4dataEv(ptr noundef nonnull align 8 dereferenceable(32) %21) #24
  %28 = tail call noundef i64 @_ZNKSt7__cxx1112basic_stringIcSt11char_traitsIcESaIcEE4sizeEv(ptr noundef nonnull align 8 dereferenceable(32) %20) #24
  %29 = icmp eq i64 %28, 0
  br i1 %29, label %_ZSteqIcEN9__gnu_cxx11__enable_ifIXsr9__is_charIT_EE7__valueEbE6__typeERKNSt7__cxx1112basic_stringIS2_St11char_traitsIS2_ESaIS2_EEESC_.exit, label %30

30:                                               ; preds = %25
  %bcmp.i = tail call i32 @bcmp(ptr %26, ptr %27, i64 %28)
  %31 = icmp eq i32 %bcmp.i, 0
  br label %_ZSteqIcEN9__gnu_cxx11__enable_ifIXsr9__is_charIT_EE7__valueEbE6__typeERKNSt7__cxx1112basic_stringIS2_St11char_traitsIS2_ESaIS2_EEESC_.exit

_ZSteqIcEN9__gnu_cxx11__enable_ifIXsr9__is_charIT_EE7__valueEbE6__typeERKNSt7__cxx1112basic_stringIS2_St11char_traitsIS2_ESaIS2_EEESC_.exit: ; preds = %6, %10, %30, %25, %19, %_ZNK32pxrInternal_v0_24__pxrReserved__16SdfNamespaceEditeqERKS0_.exit, %2
  %32 = phi i1 [ false, %_ZNK32pxrInternal_v0_24__pxrReserved__16SdfNamespaceEditeqERKS0_.exit ], [ false, %2 ], [ false, %19 ], [ %31, %30 ], [ true, %25 ], [ false, %10 ], [ false, %6 ]
  ret i1 %32
}